target datalayout = "e-m:e-p270:32:32-p271:32:32-p272:64:64-i64:64-i128:128-f80:128-n8:16:32:64-S128"
target triple = "x86_64-pc-linux-gnu"

@H5P_CLS_DATASET_XFER_ID_g = external global i64, align 8
@H5_libinit_g = external global i8, align 1
@H5_libterm_g = external global i8, align 1
@.str.1 = private unnamed_addr constant [101 x i8] c"generated/home/dtcxzyw/WorkSpace/Projects/compilers/llvm-opt-benchmark/bench/hdf5/hdf5/src/H5Pdxpl.c\00", align 1
@H5E_FUNC_g = external global i64, align 8
@H5E_CANTINIT_g = external global i64, align 8
@.str.2 = private unnamed_addr constant [30 x i8] c"library initialization failed\00", align 1
@H5E_CANTSET_g = external global i64, align 8
@.str.3 = private unnamed_addr constant [22 x i8] c"can't set API context\00", align 1
@H5E_ARGS_g = external global i64, align 8
@H5E_BADVALUE_g = external global i64, align 8
@H5E_ID_g = external global i64, align 8
@H5E_BADID_g = external global i64, align 8
@.str.5 = private unnamed_addr constant [25 x i8] c"can't find object for ID\00", align 1
@H5E_PLIST_g = external global i64, align 8
@.str.23 = private unnamed_addr constant [20 x i8] c"unable to set value\00", align 1
@.str.29 = private unnamed_addr constant [18 x i8] c"btree_split_ratio\00", align 1
@__func__.H5Pset_btree_ratios = private unnamed_addr constant [20 x i8] c"H5Pset_btree_ratios\00", align 1
@.str.30 = private unnamed_addr constant [41 x i8] c"split ratio must satisfy 0.0 <= X <= 1.0\00", align 1

; Function Attrs: nounwind uwtable
define i32 @H5Pset_btree_ratios(i64 noundef %0, double noundef %1, double noundef %2, double noundef %3) #0 {
  %5 = alloca i64, align 8
  %6 = alloca double, align 8
  %7 = alloca double, align 8
  %8 = alloca double, align 8
  %9 = alloca ptr, align 8
  %10 = alloca [3 x double], align 16
  %11 = alloca i32, align 4
  %12 = alloca i8, align 1
  %13 = alloca i8, align 1
  store i64 %0, ptr %5, align 8
  store double %1, ptr %6, align 8
  store double %2, ptr %7, align 8
  store double %3, ptr %8, align 8
  store i32 0, ptr %11, align 4
  store i8 0, ptr %12, align 1
  store i8 0, ptr %13, align 1
  %14 = load i8, ptr @H5_libinit_g, align 1
  %15 = trunc i8 %14 to i1
  br i1 %15, label %20, label %16

16:                                               ; preds = %4
  %17 = load i8, ptr @H5_libterm_g, align 1
  %18 = trunc i8 %17 to i1
  %19 = xor i1 %18, true
  br label %20

20:                                               ; preds = %16, %4
  %21 = phi i1 [ false, %4 ], [ %19, %16 ]
  %22 = xor i1 %21, true
  %23 = xor i1 %22, true
  %24 = zext i1 %23 to i32
  %25 = sext i32 %24 to i64
  %26 = icmp ne i64 %25, 0
  br i1 %26, label %27, label %51

27:                                               ; preds = %20
  %28 = call i32 @H5_init_library()
  %29 = icmp slt i32 %28, 0
  %30 = xor i1 %29, true
  %31 = xor i1 %30, true
  %32 = zext i1 %31 to i32
  %33 = sext i32 %32 to i64
  %34 = icmp ne i64 %33, 0
  br i1 %34, label %35, label %50

35:                                               ; preds = %27
  br label %36

36:                                               ; preds = %35
  br label %37

37:                                               ; preds = %36
  br label %38

38:                                               ; preds = %37
  %39 = load i64, ptr @H5E_FUNC_g, align 8
  %40 = load i64, ptr @H5E_CANTINIT_g, align 8
  %41 = call i32 (ptr, ptr, i32, i64, i64, ptr, ...) @H5E_printf_stack(ptr noundef @.str.1, ptr noundef @__func__.H5Pset_btree_ratios, i32 noundef 1460, i64 noundef %39, i64 noundef %40, ptr noundef @.str.2)
  br label %42

42:                                               ; preds = %38
  store i8 1, ptr %13, align 1
  %43 = load i8, ptr %13, align 1
  %44 = trunc i8 %43 to i1
  %45 = zext i1 %44 to i8
  store i8 %45, ptr %13, align 1
  br label %46

46:                                               ; preds = %42
  br label %47

47:                                               ; preds = %46
  store i32 -1, ptr %11, align 4
  br label %155

48:                                               ; No predecessors!
  br label %49

49:                                               ; preds = %48
  br label %50

50:                                               ; preds = %49, %27
  br label %51

51:                                               ; preds = %50, %20
  %52 = call i32 @H5CX_push()
  %53 = icmp slt i32 %52, 0
  %54 = xor i1 %53, true
  %55 = xor i1 %54, true
  %56 = zext i1 %55 to i32
  %57 = sext i32 %56 to i64
  %58 = icmp ne i64 %57, 0
  br i1 %58, label %59, label %74

59:                                               ; preds = %51
  br label %60

60:                                               ; preds = %59
  br label %61

61:                                               ; preds = %60
  br label %62

62:                                               ; preds = %61
  %63 = load i64, ptr @H5E_FUNC_g, align 8
  %64 = load i64, ptr @H5E_CANTSET_g, align 8
  %65 = call i32 (ptr, ptr, i32, i64, i64, ptr, ...) @H5E_printf_stack(ptr noundef @.str.1, ptr noundef @__func__.H5Pset_btree_ratios, i32 noundef 1460, i64 noundef %63, i64 noundef %64, ptr noundef @.str.3)
  br label %66

66:                                               ; preds = %62
  store i8 1, ptr %13, align 1
  %67 = load i8, ptr %13, align 1
  %68 = trunc i8 %67 to i1
  %69 = zext i1 %68 to i8
  store i8 %69, ptr %13, align 1
  br label %70

70:                                               ; preds = %66
  br label %71

71:                                               ; preds = %70
  store i32 -1, ptr %11, align 4
  br label %155

72:                                               ; No predecessors!
  br label %73

73:                                               ; preds = %72
  br label %75

74:                                               ; preds = %51
  store i8 1, ptr %12, align 1
  br label %75

75:                                               ; preds = %74, %73
  %76 = call i32 @H5E_clear_stack()
  %77 = load double, ptr %6, align 8
  %78 = fcmp olt double %77, 0.000000e+00
  br i1 %78, label %94, label %79

79:                                               ; preds = %75
  %80 = load double, ptr %6, align 8
  %81 = fcmp ogt double %80, 1.000000e+00
  br i1 %81, label %94, label %82

82:                                               ; preds = %79
  %83 = load double, ptr %7, align 8
  %84 = fcmp olt double %83, 0.000000e+00
  br i1 %84, label %94, label %85

85:                                               ; preds = %82
  %86 = load double, ptr %7, align 8
  %87 = fcmp ogt double %86, 1.000000e+00
  br i1 %87, label %94, label %88

88:                                               ; preds = %85
  %89 = load double, ptr %8, align 8
  %90 = fcmp olt double %89, 0.000000e+00
  br i1 %90, label %94, label %91

91:                                               ; preds = %88
  %92 = load double, ptr %8, align 8
  %93 = fcmp ogt double %92, 1.000000e+00
  br i1 %93, label %94, label %109

94:                                               ; preds = %91, %88, %85, %82, %79, %75
  br label %95

95:                                               ; preds = %94
  br label %96

96:                                               ; preds = %95
  br label %97

97:                                               ; preds = %96
  %98 = load i64, ptr @H5E_ARGS_g, align 8
  %99 = load i64, ptr @H5E_BADVALUE_g, align 8
  %100 = call i32 (ptr, ptr, i32, i64, i64, ptr, ...) @H5E_printf_stack(ptr noundef @.str.1, ptr noundef @__func__.H5Pset_btree_ratios, i32 noundef 1464, i64 noundef %98, i64 noundef %99, ptr noundef @.str.30)
  br label %101

101:                                              ; preds = %97
  store i8 1, ptr %13, align 1
  %102 = load i8, ptr %13, align 1
  %103 = trunc i8 %102 to i1
  %104 = zext i1 %103 to i8
  store i8 %104, ptr %13, align 1
  br label %105

105:                                              ; preds = %101
  br label %106

106:                                              ; preds = %105
  store i32 -1, ptr %11, align 4
  br label %155

107:                                              ; No predecessors!
  br label %108

108:                                              ; preds = %107
  br label %109

109:                                              ; preds = %108, %91
  %110 = load i64, ptr %5, align 8
  %111 = load i64, ptr @H5P_CLS_DATASET_XFER_ID_g, align 8
  %112 = call ptr @H5P_object_verify(i64 noundef %110, i64 noundef %111)
  store ptr %112, ptr %9, align 8
  %113 = icmp eq ptr null, %112
  br i1 %113, label %114, label %129

114:                                              ; preds = %109
  br label %115

115:                                              ; preds = %114
  br label %116

116:                                              ; preds = %115
  br label %117

117:                                              ; preds = %116
  %118 = load i64, ptr @H5E_ID_g, align 8
  %119 = load i64, ptr @H5E_BADID_g, align 8
  %120 = call i32 (ptr, ptr, i32, i64, i64, ptr, ...) @H5E_printf_stack(ptr noundef @.str.1, ptr noundef @__func__.H5Pset_btree_ratios, i32 noundef 1468, i64 noundef %118, i64 noundef %119, ptr noundef @.str.5)
  br label %121

121:                                              ; preds = %117
  store i8 1, ptr %13, align 1
  %122 = load i8, ptr %13, align 1
  %123 = trunc i8 %122 to i1
  %124 = zext i1 %123 to i8
  store i8 %124, ptr %13, align 1
  br label %125

125:                                              ; preds = %121
  br label %126

126:                                              ; preds = %125
  store i32 -1, ptr %11, align 4
  br label %155

127:                                              ; No predecessors!
  br label %128

128:                                              ; preds = %127
  br label %129

129:                                              ; preds = %128, %109
  %130 = load double, ptr %6, align 8
  %131 = getelementptr inbounds [3 x double], ptr %10, i64 0, i64 0
  store double %130, ptr %131, align 16
  %132 = load double, ptr %7, align 8
  %133 = getelementptr inbounds [3 x double], ptr %10, i64 0, i64 1
  store double %132, ptr %133, align 8
  %134 = load double, ptr %8, align 8
  %135 = getelementptr inbounds [3 x double], ptr %10, i64 0, i64 2
  store double %134, ptr %135, align 16
  %136 = load ptr, ptr %9, align 8
  %137 = call i32 @H5P_set(ptr noundef %136, ptr noundef @.str.29, ptr noundef %10)
  %138 = icmp slt i32 %137, 0
  br i1 %138, label %139, label %154

139:                                              ; preds = %129
  br label %140

140:                                              ; preds = %139
  br label %141

141:                                              ; preds = %140
  br label %142

142:                                              ; preds = %141
  %143 = load i64, ptr @H5E_PLIST_g, align 8
  %144 = load i64, ptr @H5E_CANTSET_g, align 8
  %145 = call i32 (ptr, ptr, i32, i64, i64, ptr, ...) @H5E_printf_stack(ptr noundef @.str.1, ptr noundef @__func__.H5Pset_btree_ratios, i32 noundef 1477, i64 noundef %143, i64 noundef %144, ptr noundef @.str.23)
  br label %146

146:                                              ; preds = %142
  store i8 1, ptr %13, align 1
  %147 = load i8, ptr %13, align 1
  %148 = trunc i8 %147 to i1
  %149 = zext i1 %148 to i8
  store i8 %149, ptr %13, align 1
  br label %150

150:                                              ; preds = %146
  br label %151

151:                                              ; preds = %150
  store i32 -1, ptr %11, align 4
  br label %155

152:                                              ; No predecessors!
  br label %153

153:                                              ; preds = %152
  br label %154

154:                                              ; preds = %153, %129
  br label %155

155:                                              ; preds = %154, %151, %126, %106, %71, %47
  %156 = load i8, ptr %12, align 1
  %157 = trunc i8 %156 to i1
  %158 = xor i1 %157, true
  %159 = xor i1 %158, true
  %160 = zext i1 %159 to i32
  %161 = sext i32 %160 to i64
  %162 = icmp ne i64 %161, 0
  br i1 %162, label %163, label %165

163:                                              ; preds = %155
  %164 = call i32 @H5CX_pop(i1 noundef zeroext true)
  store i8 0, ptr %12, align 1
  br label %165

165:                                              ; preds = %163, %155
  %166 = load i8, ptr %13, align 1
  %167 = trunc i8 %166 to i1
  %168 = xor i1 %167, true
  %169 = xor i1 %168, true
  %170 = zext i1 %169 to i32
  %171 = sext i32 %170 to i64
  %172 = icmp ne i64 %171, 0
  br i1 %172, label %173, label %175

173:                                              ; preds = %165
  %174 = call i32 @H5E_dump_api_stack()
  br label %175

175:                                              ; preds = %173, %165
  %176 = load i32, ptr %11, align 4
  ret i32 %176
}