; Function Attrs: nounwind uwtable
define range(i32 -1, 1) i32 @H5Pset_btree_ratios(i64 noundef %0, double noundef %1, double noundef %2, double noundef %3) local_unnamed_addr #0 {
  %5 = alloca [3 x double], align 16
  %6 = load i8, ptr @H5_libinit_g, align 1
  %7 = trunc i8 %6 to i1
  %8 = load i8, ptr @H5_libterm_g, align 1
  %9 = trunc i8 %8 to i1
  %10 = select i1 %7, i1 true, i1 %9
  br i1 %10, label %18, label %11

11:                                               ; preds = %4
  %12 = tail call i32 @H5_init_library() #8
  %13 = icmp slt i32 %12, 0
  br i1 %13, label %14, label %18

14:                                               ; preds = %11
  %15 = load i64, ptr @H5E_FUNC_g, align 8
  %16 = load i64, ptr @H5E_CANTINIT_g, align 8
  %17 = tail call i32 (ptr, ptr, i32, i64, i64, ptr, ...) @H5E_printf_stack(ptr noundef nonnull @.str.1, ptr noundef nonnull @__func__.H5Pset_btree_ratios, i32 noundef 1460, i64 noundef %15, i64 noundef %16, ptr noundef nonnull @.str.2) #8
  br label %.thread40

18:                                               ; preds = %11, %4
  %19 = tail call i32 @H5CX_push() #8
  %20 = icmp slt i32 %19, 0
  br i1 %20, label %21, label %25

21:                                               ; preds = %18
  %22 = load i64, ptr @H5E_FUNC_g, align 8
  %23 = load i64, ptr @H5E_CANTSET_g, align 8
  %24 = tail call i32 (ptr, ptr, i32, i64, i64, ptr, ...) @H5E_printf_stack(ptr noundef nonnull @.str.1, ptr noundef nonnull @__func__.H5Pset_btree_ratios, i32 noundef 1460, i64 noundef %22, i64 noundef %23, ptr noundef nonnull @.str.3) #8
  br label %.thread40

25:                                               ; preds = %18
  %26 = tail call i32 @H5E_clear_stack() #8
  %27 = fcmp olt double %1, 0.000000e+00
  %28 = fcmp ogt double %1, 1.000000e+00
  %or.cond = or i1 %27, %28
  %29 = fcmp olt double %2, 0.000000e+00
  %or.cond3 = or i1 %or.cond, %29
  %30 = fcmp ogt double %2, 1.000000e+00
  %or.cond5 = or i1 %30, %or.cond3
  %31 = fcmp olt double %3, 0.000000e+00
  %or.cond7 = or i1 %31, %or.cond5
  %32 = fcmp ogt double %3, 1.000000e+00
  %or.cond9 = or i1 %32, %or.cond7
  br i1 %or.cond9, label %33, label %37

33:                                               ; preds = %25
  %34 = load i64, ptr @H5E_ARGS_g, align 8
  %35 = load i64, ptr @H5E_BADVALUE_g, align 8
  %36 = tail call i32 (ptr, ptr, i32, i64, i64, ptr, ...) @H5E_printf_stack(ptr noundef nonnull @.str.1, ptr noundef nonnull @__func__.H5Pset_btree_ratios, i32 noundef 1464, i64 noundef %34, i64 noundef %35, ptr noundef nonnull @.str.30) #8
  br label %.thread46

37:                                               ; preds = %25
  %38 = load i64, ptr @H5P_CLS_DATASET_XFER_ID_g, align 8
  %39 = tail call ptr @H5P_object_verify(i64 noundef %0, i64 noundef %38) #8
  %40 = icmp eq ptr %39, null
  br i1 %40, label %41, label %45

41:                                               ; preds = %37
  %42 = load i64, ptr @H5E_ID_g, align 8
  %43 = load i64, ptr @H5E_BADID_g, align 8
  %44 = tail call i32 (ptr, ptr, i32, i64, i64, ptr, ...) @H5E_printf_stack(ptr noundef nonnull @.str.1, ptr noundef nonnull @__func__.H5Pset_btree_ratios, i32 noundef 1468, i64 noundef %42, i64 noundef %43, ptr noundef nonnull @.str.5) #8
  br label %.thread46

45:                                               ; preds = %37
  store double %1, ptr %5, align 16
  %46 = getelementptr inbounds i8, ptr %5, i64 8
  store double %2, ptr %46, align 8
  %47 = getelementptr inbounds i8, ptr %5, i64 16
  store double %3, ptr %47, align 16
  %48 = call i32 @H5P_set(ptr noundef nonnull %39, ptr noundef nonnull @.str.29, ptr noundef nonnull %5) #8
  %49 = icmp slt i32 %48, 0
  br i1 %49, label %50, label %55

50:                                               ; preds = %45
  %51 = load i64, ptr @H5E_PLIST_g, align 8
  %52 = load i64, ptr @H5E_CANTSET_g, align 8
  %53 = call i32 (ptr, ptr, i32, i64, i64, ptr, ...) @H5E_printf_stack(ptr noundef nonnull @.str.1, ptr noundef nonnull @__func__.H5Pset_btree_ratios, i32 noundef 1477, i64 noundef %51, i64 noundef %52, ptr noundef nonnull @.str.23) #8
  br label %.thread46

.thread46:                                        ; preds = %50, %41, %33
  %54 = call i32 @H5CX_pop(i1 noundef zeroext true) #8
  br label %.thread40

55:                                               ; preds = %45
  %56 = call i32 @H5CX_pop(i1 noundef zeroext true) #8
  br label %58

.thread40:                                        ; preds = %21, %14, %.thread46
  %57 = call i32 @H5E_dump_api_stack() #8
  br label %58

58:                                               ; preds = %55, %.thread40
  %.0283543 = phi i32 [ -1, %.thread40 ], [ 0, %55 ]
  ret i32 %.0283543
}